; ModuleID = '38/21.c'
source_filename = "38/21.c"
target datalayout = "e-m:e-p270:32:32-p271:32:32-p272:64:64-i64:64-f80:128-n8:16:32:64-S128"
target triple = "x86_64-pc-linux-gnu"

@.str = private unnamed_addr constant [3 x i8] c"%d\00", align 1
@.str.1 = private unnamed_addr constant [4 x i8] c"%lf\00", align 1
@.str.2 = private unnamed_addr constant [7 x i8] c"%.5lf\0A\00", align 1

; Function Attrs: noinline nounwind uwtable
define dso_local i32 @main() #0 {
  %1 = alloca i32, align 4
  %2 = alloca i32, align 4
  %3 = alloca i32, align 4
  %4 = alloca i32, align 4
  %5 = alloca i32, align 4
  %6 = alloca double, align 8
  %7 = alloca double, align 8
  %8 = alloca [1000 x double], align 16
  %9 = alloca double, align 8
  store i32 0, i32* %1, align 4
  store double 0.000000e+00, double* %6, align 8
  store double 0.000000e+00, double* %7, align 8
  %10 = call i32 (i8*, ...) @__isoc99_scanf(i8* getelementptr inbounds ([3 x i8], [3 x i8]* @.str, i64 0, i64 0), i32* %2)
  store i32 0, i32* %4, align 4
  br label %11

11:                                               ; preds = %73, %0
  %12 = load i32, i32* %4, align 4
  %13 = load i32, i32* %2, align 4
  %14 = icmp slt i32 %12, %13
  br i1 %14, label %15, label %76

15:                                               ; preds = %11
  %16 = call i32 (i8*, ...) @__isoc99_scanf(i8* getelementptr inbounds ([3 x i8], [3 x i8]* @.str, i64 0, i64 0), i32* %3)
  store i32 0, i32* %5, align 4
  br label %17

17:                                               ; preds = %26, %15
  %18 = load i32, i32* %5, align 4
  %19 = load i32, i32* %3, align 4
  %20 = icmp slt i32 %18, %19
  br i1 %20, label %21, label %29

21:                                               ; preds = %17
  %22 = load i32, i32* %5, align 4
  %23 = sext i32 %22 to i64
  %24 = getelementptr inbounds [1000 x double], [1000 x double]* %8, i64 0, i64 %23
  %25 = call i32 (i8*, ...) @__isoc99_scanf(i8* getelementptr inbounds ([4 x i8], [4 x i8]* @.str.1, i64 0, i64 0), double* %24)
  br label %26

26:                                               ; preds = %21
  %27 = load i32, i32* %5, align 4
  %28 = add nsw i32 %27, 1
  store i32 %28, i32* %5, align 4
  br label %17

29:                                               ; preds = %17
  store i32 0, i32* %5, align 4
  br label %30

30:                                               ; preds = %41, %29
  %31 = load i32, i32* %5, align 4
  %32 = load i32, i32* %3, align 4
  %33 = icmp slt i32 %31, %32
  br i1 %33, label %34, label %44

34:                                               ; preds = %30
  %35 = load i32, i32* %5, align 4
  %36 = sext i32 %35 to i64
  %37 = getelementptr inbounds [1000 x double], [1000 x double]* %8, i64 0, i64 %36
  %38 = load double, double* %37, align 8
  %39 = load double, double* %7, align 8
  %40 = fadd double %39, %38
  store double %40, double* %7, align 8
  br label %41

41:                                               ; preds = %34
  %42 = load i32, i32* %5, align 4
  %43 = add nsw i32 %42, 1
  store i32 %43, i32* %5, align 4
  br label %30

44:                                               ; preds = %30
  store i32 0, i32* %5, align 4
  br label %45

45:                                               ; preds = %62, %44
  %46 = load i32, i32* %5, align 4
  %47 = load i32, i32* %3, align 4
  %48 = icmp slt i32 %46, %47
  br i1 %48, label %49, label %65

49:                                               ; preds = %45
  %50 = load i32, i32* %5, align 4
  %51 = sext i32 %50 to i64
  %52 = getelementptr inbounds [1000 x double], [1000 x double]* %8, i64 0, i64 %51
  %53 = load double, double* %52, align 8
  %54 = load double, double* %7, align 8
  %55 = load i32, i32* %3, align 4
  %56 = sitofp i32 %55 to double
  %57 = fdiv double %54, %56
  %58 = fsub double %53, %57
  %59 = call double @pow(double %58, double 2.000000e+00) #3
  %60 = load double, double* %6, align 8
  %61 = fadd double %60, %59
  store double %61, double* %6, align 8
  br label %62

62:                                               ; preds = %49
  %63 = load i32, i32* %5, align 4
  %64 = add nsw i32 %63, 1
  store i32 %64, i32* %5, align 4
  br label %45

65:                                               ; preds = %45
  %66 = load double, double* %6, align 8
  %67 = load i32, i32* %3, align 4
  %68 = sitofp i32 %67 to double
  %69 = fdiv double %66, %68
  %70 = call double @sqrt(double %69) #3
  store double %70, double* %9, align 8
  %71 = load double, double* %9, align 8
  %72 = call i32 (i8*, ...) @printf(i8* getelementptr inbounds ([7 x i8], [7 x i8]* @.str.2, i64 0, i64 0), double %71)
  store double 0.000000e+00, double* %7, align 8
  store double 0.000000e+00, double* %6, align 8
  br label %73

73:                                               ; preds = %65
  %74 = load i32, i32* %4, align 4
  %75 = add nsw i32 %74, 1
  store i32 %75, i32* %4, align 4
  br label %11

76:                                               ; preds = %11
  ret i32 0
}

declare dso_local i32 @__isoc99_scanf(i8*, ...) #1

; Function Attrs: nounwind
declare dso_local double @pow(double, double) #2

; Function Attrs: nounwind
declare dso_local double @sqrt(double) #2

declare dso_local i32 @printf(i8*, ...) #1


!llvm.module.flags = !{!0}
!llvm.ident = !{!1}

!0 = !{i32 1, !"wchar_size", i32 4}
!1 = !{!"clang version 10.0.0-4ubuntu1 "}
